target datalayout = "e-m:e-p270:32:32-p271:32:32-p272:64:64-i64:64-i128:128-f80:128-n8:16:32:64-S128"
target triple = "x86_64-pc-linux-gnu"

%struct._value_string_ext = type { ptr, i32, i32, ptr, ptr }
%struct.tag_mikey_t = type { i8 }
%struct.mikey_dissector_entry = type { i32, ptr }

@hf_mikey = internal global [71 x i32] zeroinitializer, align 16
@data_type_vals_ext = internal global %struct._value_string_ext { ptr @_try_val_to_str_ext_init, i32 0, i32 13, ptr @data_type_vals, ptr @.str.200 }, align 8
@.str.301 = private unnamed_addr constant [8 x i8] c"Unknown\00", align 1
@.str.305 = private unnamed_addr constant [10 x i8] c" Type: %s\00", align 1
@cs_id_map = internal constant [2 x { i32, [4 x i8], ptr }] [{ i32, [4 x i8], ptr } { i32 0, [4 x i8] zeroinitializer, ptr @dissect_payload_cs_id_srtp }, { i32, [4 x i8], ptr } zeroinitializer], align 16

; Function Attrs: nounwind null_pointer_is_valid sspstrong uwtable
define internal ptr @mikey_dissector_lookup(ptr noundef %0, i32 noundef %1) #4 {
  %3 = alloca ptr, align 8
  %4 = alloca ptr, align 8
  %5 = alloca i32, align 4
  %6 = alloca i32, align 4
  %7 = alloca i32, align 4
  store ptr %0, ptr %4, align 8
  store i32 %1, ptr %5, align 4
  call void @llvm.lifetime.start.p0(i64 4, ptr %6) #5
  store i32 0, ptr %6, align 4
  br label %8

8:                                                ; preds = %31, %2
  %9 = load ptr, ptr %4, align 8
  %10 = load i32, ptr %6, align 4
  %11 = zext i32 %10 to i64
  %12 = getelementptr %struct.mikey_dissector_entry, ptr %9, i64 %11
  %13 = getelementptr inbounds nuw %struct.mikey_dissector_entry, ptr %12, i32 0, i32 1
  %14 = load ptr, ptr %13, align 8
  %15 = icmp ne ptr %14, null
  br i1 %15, label %16, label %34

16:                                               ; preds = %8
  %17 = load ptr, ptr %4, align 8
  %18 = load i32, ptr %6, align 4
  %19 = zext i32 %18 to i64
  %20 = getelementptr %struct.mikey_dissector_entry, ptr %17, i64 %19
  %21 = getelementptr inbounds nuw %struct.mikey_dissector_entry, ptr %20, i32 0, i32 0
  %22 = load i32, ptr %21, align 8
  %23 = load i32, ptr %5, align 4
  %24 = icmp eq i32 %22, %23
  br i1 %24, label %25, label %30

25:                                               ; preds = %16
  %26 = load ptr, ptr %4, align 8
  %27 = load i32, ptr %6, align 4
  %28 = zext i32 %27 to i64
  %29 = getelementptr %struct.mikey_dissector_entry, ptr %26, i64 %28
  store ptr %29, ptr %3, align 8
  store i32 1, ptr %7, align 4
  br label %35

30:                                               ; preds = %16
  br label %31

31:                                               ; preds = %30
  %32 = load i32, ptr %6, align 4
  %33 = add i32 %32, 1
  store i32 %33, ptr %6, align 4
  br label %8, !llvm.loop !8

34:                                               ; preds = %8
  store ptr null, ptr %3, align 8
  store i32 1, ptr %7, align 4
  br label %35

35:                                               ; preds = %34, %25
  call void @llvm.lifetime.end.p0(i64 4, ptr %6) #5
  %36 = load ptr, ptr %3, align 8
  ret ptr %36
}

; Function Attrs: null_pointer_is_valid sspstrong uwtable
define internal i32 @dissect_payload_cs_id(i32 noundef %0, ptr noundef %1, ptr noundef %2, ptr noundef %3, ptr noundef %4) #0 {
  %6 = alloca i32, align 4
  %7 = alloca i32, align 4
  %8 = alloca ptr, align 8
  %9 = alloca ptr, align 8
  %10 = alloca ptr, align 8
  %11 = alloca ptr, align 8
  %12 = alloca ptr, align 8
  %13 = alloca i32, align 4
  store i32 %0, ptr %7, align 4
  store ptr %1, ptr %8, align 8
  store ptr %2, ptr %9, align 8
  store ptr %3, ptr %10, align 8
  store ptr %4, ptr %11, align 8
  call void @llvm.lifetime.start.p0(i64 8, ptr %12) #5
  %14 = load i32, ptr %7, align 4
  %15 = call ptr @mikey_dissector_lookup(ptr noundef @cs_id_map, i32 noundef %14)
  store ptr %15, ptr %12, align 8
  %16 = load ptr, ptr %12, align 8
  %17 = icmp ne ptr %16, null
  br i1 %17, label %18, label %23

18:                                               ; preds = %5
  %19 = load ptr, ptr %12, align 8
  %20 = getelementptr inbounds nuw %struct.mikey_dissector_entry, ptr %19, i32 0, i32 1
  %21 = load ptr, ptr %20, align 8
  %22 = icmp ne ptr %21, null
  br i1 %22, label %24, label %23

23:                                               ; preds = %18, %5
  store i32 0, ptr %6, align 4
  store i32 1, ptr %13, align 4
  br label %33

24:                                               ; preds = %18
  %25 = load ptr, ptr %12, align 8
  %26 = getelementptr inbounds nuw %struct.mikey_dissector_entry, ptr %25, i32 0, i32 1
  %27 = load ptr, ptr %26, align 8
  %28 = load ptr, ptr %8, align 8
  %29 = load ptr, ptr %9, align 8
  %30 = load ptr, ptr %10, align 8
  %31 = load ptr, ptr %11, align 8
  %32 = call i32 %27(ptr noundef %28, ptr noundef %29, ptr noundef %30, ptr noundef %31)
  store i32 %32, ptr %6, align 4
  store i32 1, ptr %13, align 4
  br label %33

33:                                               ; preds = %24, %23
  call void @llvm.lifetime.end.p0(i64 8, ptr %12) #5
  %34 = load i32, ptr %6, align 4
  ret i32 %34
}

; Function Attrs: null_pointer_is_valid sspstrong uwtable
define internal void @add_next_payload(ptr noundef %0, ptr noundef %1, i32 noundef %2) #0 {
  %4 = alloca ptr, align 8
  %5 = alloca ptr, align 8
  %6 = alloca i32, align 4
  store ptr %0, ptr %4, align 8
  store ptr %1, ptr %5, align 8
  store i32 %2, ptr %6, align 4
  %7 = load ptr, ptr %5, align 8
  %8 = load i32, ptr getelementptr ([71 x i32], ptr @hf_mikey, i64 0, i64 69), align 4
  %9 = load ptr, ptr %4, align 8
  %10 = load i32, ptr %6, align 4
  %11 = call ptr @proto_tree_add_item(ptr noundef %7, i32 noundef %8, ptr noundef %9, i32 noundef %10, i32 noundef 1, i32 noundef 0)
  ret void
}

; Function Attrs: null_pointer_is_valid sspstrong uwtable
define internal i32 @dissect_payload_hdr(ptr noundef %0, ptr noundef %1, ptr noundef %2, ptr noundef %3) #0 {
  %5 = alloca i32, align 4
  %6 = alloca ptr, align 8
  %7 = alloca ptr, align 8
  %8 = alloca ptr, align 8
  %9 = alloca ptr, align 8
  %10 = alloca i32, align 4
  %11 = alloca i8, align 1
  %12 = alloca i8, align 1
  %13 = alloca i32, align 4
  %14 = alloca ptr, align 8
  %15 = alloca ptr, align 8
  %16 = alloca i32, align 4
  %17 = alloca i32, align 4
  store ptr %0, ptr %6, align 8
  store ptr %1, ptr %7, align 8
  store ptr %2, ptr %8, align 8
  store ptr %3, ptr %9, align 8
  call void @llvm.lifetime.start.p0(i64 4, ptr %10) #5
  store i32 0, ptr %10, align 4
  call void @llvm.lifetime.start.p0(i64 1, ptr %11) #5
  call void @llvm.lifetime.start.p0(i64 1, ptr %12) #5
  call void @llvm.lifetime.start.p0(i64 4, ptr %13) #5
  %18 = load ptr, ptr %7, align 8
  %19 = load i32, ptr %10, align 4
  call void @tvb_ensure_bytes_exist(ptr noundef %18, i32 noundef %19, i32 noundef 10)
  %20 = load ptr, ptr %7, align 8
  %21 = load i32, ptr %10, align 4
  %22 = add i32 %21, 1
  %23 = call zeroext i8 @tvb_get_uint8(ptr noundef %20, i32 noundef %22)
  %24 = load ptr, ptr %6, align 8
  %25 = getelementptr inbounds nuw %struct.tag_mikey_t, ptr %24, i32 0, i32 0
  store i8 %23, ptr %25, align 1
  %26 = load ptr, ptr %7, align 8
  %27 = load i32, ptr %10, align 4
  %28 = add i32 %27, 8
  %29 = call zeroext i8 @tvb_get_uint8(ptr noundef %26, i32 noundef %28)
  store i8 %29, ptr %12, align 1
  %30 = load ptr, ptr %7, align 8
  %31 = load i32, ptr %10, align 4
  %32 = add i32 %31, 9
  %33 = call zeroext i8 @tvb_get_uint8(ptr noundef %30, i32 noundef %32)
  store i8 %33, ptr %11, align 1
  %34 = load ptr, ptr %9, align 8
  %35 = icmp ne ptr %34, null
  br i1 %35, label %36, label %91

36:                                               ; preds = %4
  call void @llvm.lifetime.start.p0(i64 8, ptr %14) #5
  %37 = load ptr, ptr %9, align 8
  %38 = load i32, ptr @hf_mikey, align 16
  %39 = load ptr, ptr %7, align 8
  %40 = load i32, ptr %10, align 4
  %41 = add i32 %40, 0
  %42 = call ptr @proto_tree_add_item(ptr noundef %37, i32 noundef %38, ptr noundef %39, i32 noundef %41, i32 noundef 1, i32 noundef 0)
  %43 = load ptr, ptr %9, align 8
  %44 = load i32, ptr getelementptr ([71 x i32], ptr @hf_mikey, i64 0, i64 1), align 4
  %45 = load ptr, ptr %7, align 8
  %46 = load i32, ptr %10, align 4
  %47 = add i32 %46, 1
  %48 = call ptr @proto_tree_add_item(ptr noundef %43, i32 noundef %44, ptr noundef %45, i32 noundef %47, i32 noundef 1, i32 noundef 0)
  %49 = load ptr, ptr %9, align 8
  %50 = call ptr @proto_tree_get_parent(ptr noundef %49)
  store ptr %50, ptr %14, align 8
  %51 = load ptr, ptr %14, align 8
  %52 = load ptr, ptr %6, align 8
  %53 = getelementptr inbounds nuw %struct.tag_mikey_t, ptr %52, i32 0, i32 0
  %54 = load i8, ptr %53, align 1
  %55 = zext i8 %54 to i32
  %56 = call ptr @val_to_str_ext_const(i32 noundef %55, ptr noundef @data_type_vals_ext, ptr noundef @.str.301)
  call void (ptr, ptr, ...) @proto_item_append_text(ptr noundef %51, ptr noundef @.str.305, ptr noundef %56)
  %57 = load ptr, ptr %7, align 8
  %58 = load ptr, ptr %9, align 8
  %59 = load i32, ptr %10, align 4
  %60 = add i32 %59, 2
  call void @add_next_payload(ptr noundef %57, ptr noundef %58, i32 noundef %60)
  %61 = load ptr, ptr %9, align 8
  %62 = load i32, ptr getelementptr ([71 x i32], ptr @hf_mikey, i64 0, i64 2), align 8
  %63 = load ptr, ptr %7, align 8
  %64 = load i32, ptr %10, align 4
  %65 = add i32 %64, 3
  %66 = call ptr @proto_tree_add_item(ptr noundef %61, i32 noundef %62, ptr noundef %63, i32 noundef %65, i32 noundef 1, i32 noundef 0)
  %67 = load ptr, ptr %9, align 8
  %68 = load i32, ptr getelementptr ([71 x i32], ptr @hf_mikey, i64 0, i64 3), align 4
  %69 = load ptr, ptr %7, align 8
  %70 = load i32, ptr %10, align 4
  %71 = add i32 %70, 3
  %72 = call ptr @proto_tree_add_item(ptr noundef %67, i32 noundef %68, ptr noundef %69, i32 noundef %71, i32 noundef 1, i32 noundef 0)
  %73 = load ptr, ptr %9, align 8
  %74 = load i32, ptr getelementptr ([71 x i32], ptr @hf_mikey, i64 0, i64 4), align 16
  %75 = load ptr, ptr %7, align 8
  %76 = load i32, ptr %10, align 4
  %77 = add i32 %76, 4
  %78 = call ptr @proto_tree_add_item(ptr noundef %73, i32 noundef %74, ptr noundef %75, i32 noundef %77, i32 noundef 4, i32 noundef 0)
  %79 = load ptr, ptr %9, align 8
  %80 = load i32, ptr getelementptr ([71 x i32], ptr @hf_mikey, i64 0, i64 5), align 4
  %81 = load ptr, ptr %7, align 8
  %82 = load i32, ptr %10, align 4
  %83 = add i32 %82, 8
  %84 = call ptr @proto_tree_add_item(ptr noundef %79, i32 noundef %80, ptr noundef %81, i32 noundef %83, i32 noundef 1, i32 noundef 0)
  %85 = load ptr, ptr %9, align 8
  %86 = load i32, ptr getelementptr ([71 x i32], ptr @hf_mikey, i64 0, i64 6), align 8
  %87 = load ptr, ptr %7, align 8
  %88 = load i32, ptr %10, align 4
  %89 = add i32 %88, 9
  %90 = call ptr @proto_tree_add_item(ptr noundef %85, i32 noundef %86, ptr noundef %87, i32 noundef %89, i32 noundef 1, i32 noundef 0)
  call void @llvm.lifetime.end.p0(i64 8, ptr %14) #5
  br label %91

91:                                               ; preds = %36, %4
  %92 = load i32, ptr %10, align 4
  %93 = add i32 %92, 10
  store i32 %93, ptr %10, align 4
  store i32 0, ptr %13, align 4
  br label %94

94:                                               ; preds = %120, %91
  %95 = load i32, ptr %13, align 4
  %96 = load i8, ptr %12, align 1
  %97 = zext i8 %96 to i32
  %98 = icmp slt i32 %95, %97
  br i1 %98, label %99, label %123

99:                                               ; preds = %94
  call void @llvm.lifetime.start.p0(i64 8, ptr %15) #5
  call void @llvm.lifetime.start.p0(i64 4, ptr %16) #5
  %100 = load ptr, ptr %7, align 8
  %101 = load i32, ptr %10, align 4
  %102 = call ptr @tvb_new_subset_remaining(ptr noundef %100, i32 noundef %101)
  store ptr %102, ptr %15, align 8
  %103 = load i8, ptr %11, align 1
  %104 = zext i8 %103 to i32
  %105 = load ptr, ptr %6, align 8
  %106 = load ptr, ptr %15, align 8
  %107 = load ptr, ptr %8, align 8
  %108 = load ptr, ptr %9, align 8
  %109 = call i32 @dissect_payload_cs_id(i32 noundef %104, ptr noundef %105, ptr noundef %106, ptr noundef %107, ptr noundef %108)
  store i32 %109, ptr %16, align 4
  %110 = load i32, ptr %16, align 4
  %111 = icmp slt i32 %110, 0
  br i1 %111, label %112, label %113

112:                                              ; preds = %99
  store i32 0, ptr %5, align 4
  store i32 1, ptr %17, align 4
  br label %117

113:                                              ; preds = %99
  %114 = load i32, ptr %16, align 4
  %115 = load i32, ptr %10, align 4
  %116 = add i32 %115, %114
  store i32 %116, ptr %10, align 4
  store i32 0, ptr %17, align 4
  br label %117

117:                                              ; preds = %113, %112
  call void @llvm.lifetime.end.p0(i64 4, ptr %16) #5
  call void @llvm.lifetime.end.p0(i64 8, ptr %15) #5
  %118 = load i32, ptr %17, align 4
  switch i32 %118, label %125 [
    i32 0, label %119
  ]

119:                                              ; preds = %117
  br label %120

120:                                              ; preds = %119
  %121 = load i32, ptr %13, align 4
  %122 = add i32 %121, 1
  store i32 %122, ptr %13, align 4
  br label %94, !llvm.loop !9

123:                                              ; preds = %94
  %124 = load i32, ptr %10, align 4
  store i32 %124, ptr %5, align 4
  store i32 1, ptr %17, align 4
  br label %125

125:                                              ; preds = %123, %117
  call void @llvm.lifetime.end.p0(i64 4, ptr %13) #5
  call void @llvm.lifetime.end.p0(i64 1, ptr %12) #5
  call void @llvm.lifetime.end.p0(i64 1, ptr %11) #5
  call void @llvm.lifetime.end.p0(i64 4, ptr %10) #5
  %126 = load i32, ptr %5, align 4
  ret i32 %126
}