; Function Attrs: null_pointer_is_valid sspstrong uwtable
define internal noundef i32 @dissect_payload_hdr(ptr noundef captures(none) initializes((0, 1)) %0, ptr noundef %1, ptr noundef readnone captures(none) %2, ptr noundef %3) #0 {
  tail call void @tvb_ensure_bytes_exist(ptr noundef %1, i32 noundef 0, i32 noundef 10)
  %5 = tail call zeroext i8 @tvb_get_uint8(ptr noundef %1, i32 noundef 1)
  store i8 %5, ptr %0, align 1
  %6 = tail call zeroext i8 @tvb_get_uint8(ptr noundef %1, i32 noundef 8)
  %7 = tail call zeroext i8 @tvb_get_uint8(ptr noundef %1, i32 noundef 9)
  %.not = icmp eq ptr %3, null
  br i1 %.not, label %29, label %8

8:                                                ; preds = %4
  %9 = load i32, ptr @hf_mikey, align 16
  %10 = tail call ptr @proto_tree_add_item(ptr noundef nonnull %3, i32 noundef %9, ptr noundef %1, i32 noundef 0, i32 noundef 1, i32 noundef 0)
  %11 = load i32, ptr getelementptr inbounds nuw (i8, ptr @hf_mikey, i64 4), align 4
  %12 = tail call ptr @proto_tree_add_item(ptr noundef nonnull %3, i32 noundef %11, ptr noundef %1, i32 noundef 1, i32 noundef 1, i32 noundef 0)
  %13 = tail call ptr @proto_tree_get_parent(ptr noundef nonnull %3)
  %14 = load i8, ptr %0, align 1
  %15 = zext i8 %14 to i32
  %16 = tail call ptr @val_to_str_ext_const(i32 noundef %15, ptr noundef nonnull @data_type_vals_ext, ptr noundef nonnull @.str.301)
  tail call void (ptr, ptr, ...) @proto_item_append_text(ptr noundef %13, ptr noundef nonnull @.str.305, ptr noundef %16)
  %17 = load i32, ptr getelementptr inbounds nuw (i8, ptr @hf_mikey, i64 276), align 4
  %18 = tail call ptr @proto_tree_add_item(ptr noundef nonnull %3, i32 noundef %17, ptr noundef %1, i32 noundef 2, i32 noundef 1, i32 noundef 0)
  %19 = load i32, ptr getelementptr inbounds nuw (i8, ptr @hf_mikey, i64 8), align 8
  %20 = tail call ptr @proto_tree_add_item(ptr noundef nonnull %3, i32 noundef %19, ptr noundef %1, i32 noundef 3, i32 noundef 1, i32 noundef 0)
  %21 = load i32, ptr getelementptr inbounds nuw (i8, ptr @hf_mikey, i64 12), align 4
  %22 = tail call ptr @proto_tree_add_item(ptr noundef nonnull %3, i32 noundef %21, ptr noundef %1, i32 noundef 3, i32 noundef 1, i32 noundef 0)
  %23 = load i32, ptr getelementptr inbounds nuw (i8, ptr @hf_mikey, i64 16), align 16
  %24 = tail call ptr @proto_tree_add_item(ptr noundef nonnull %3, i32 noundef %23, ptr noundef %1, i32 noundef 4, i32 noundef 4, i32 noundef 0)
  %25 = load i32, ptr getelementptr inbounds nuw (i8, ptr @hf_mikey, i64 20), align 4
  %26 = tail call ptr @proto_tree_add_item(ptr noundef nonnull %3, i32 noundef %25, ptr noundef %1, i32 noundef 8, i32 noundef 1, i32 noundef 0)
  %27 = load i32, ptr getelementptr inbounds nuw (i8, ptr @hf_mikey, i64 24), align 8
  %28 = tail call ptr @proto_tree_add_item(ptr noundef nonnull %3, i32 noundef %27, ptr noundef %1, i32 noundef 9, i32 noundef 1, i32 noundef 0)
  br label %29

29:                                               ; preds = %8, %4
  %30 = zext i8 %6 to i32
  %.not66 = icmp eq i8 %6, 0
  br i1 %.not66, label %._crit_edge, label %.lr.ph

.lr.ph:                                           ; preds = %29
  %.fr67 = freeze i8 %7
  %31 = icmp eq i8 %.fr67, 0
  br i1 %31, label %dissect_payload_cs_id.exit.us, label %dissect_payload_cs_id.exit.thread

dissect_payload_cs_id.exit.us:                    ; preds = %.lr.ph, %dissect_payload_cs_id.exit.thread.us
  %.05463.us = phi i32 [ %35, %dissect_payload_cs_id.exit.thread.us ], [ 10, %.lr.ph ]
  %.05662.us = phi i32 [ %36, %dissect_payload_cs_id.exit.thread.us ], [ 0, %.lr.ph ]
  %32 = tail call ptr @tvb_new_subset_remaining(ptr noundef %1, i32 noundef %.05463.us)
  %33 = tail call fastcc i32 @dissect_payload_cs_id_srtp(ptr readnone poison, ptr noundef %32, ptr readnone poison, ptr noundef %3)
  %34 = icmp sgt i32 %33, -1
  br i1 %34, label %dissect_payload_cs_id.exit.thread.us, label %._crit_edge

dissect_payload_cs_id.exit.thread.us:             ; preds = %dissect_payload_cs_id.exit.us
  %35 = add i32 %33, %.05463.us
  %36 = add nuw nsw i32 %.05662.us, 1
  %exitcond69.not = icmp eq i32 %36, %30
  br i1 %exitcond69.not, label %._crit_edge, label %dissect_payload_cs_id.exit.us, !llvm.loop !8

dissect_payload_cs_id.exit.thread:                ; preds = %.lr.ph, %dissect_payload_cs_id.exit.thread
  %.05662 = phi i32 [ %38, %dissect_payload_cs_id.exit.thread ], [ 0, %.lr.ph ]
  %37 = tail call ptr @tvb_new_subset_remaining(ptr noundef %1, i32 noundef 10)
  %38 = add nuw nsw i32 %.05662, 1
  %exitcond.not = icmp eq i32 %38, %30
  br i1 %exitcond.not, label %._crit_edge, label %dissect_payload_cs_id.exit.thread, !llvm.loop !8

._crit_edge:                                      ; preds = %dissect_payload_cs_id.exit.thread, %dissect_payload_cs_id.exit.us, %dissect_payload_cs_id.exit.thread.us, %29
  %.2 = phi i32 [ 10, %29 ], [ %35, %dissect_payload_cs_id.exit.thread.us ], [ 0, %dissect_payload_cs_id.exit.us ], [ 10, %dissect_payload_cs_id.exit.thread ]
  ret i32 %.2
}